target datalayout = "e-m:e-p270:32:32-p271:32:32-p272:64:64-i64:64-i128:128-f80:128-n8:16:32:64-S128"
target triple = "x86_64-pc-linux-gnu"

%"class.folly::MemoryMapping" = type { %"class.folly::File", ptr, i64, %"struct.folly::MemoryMapping::Options", i8, %"class.folly::Range" }
%"class.folly::File" = type <{ i32, i8, [3 x i8] }>
%"struct.folly::MemoryMapping::Options" = type { i64, i8, i8, i8, i8, i8, ptr }
%"class.folly::Range" = type { ptr, ptr }
%"class.google::LogMessage" = type { ptr, ptr }
%"class.google::ErrnoLogMessage" = type { %"class.google::LogMessage" }
%"class.std::ios_base" = type { ptr, i64, i64, i32, i32, i32, ptr, %"struct.std::ios_base::_Words", [8 x %"struct.std::ios_base::_Words"], i32, ptr, %"class.std::locale" }
%"struct.std::ios_base::_Words" = type { ptr, i64 }
%"class.std::locale" = type { ptr }

@_ZN5fLI6422FLAGS_mlock_chunk_sizeE = global i64 1048576, align 8
@.str.7 = private unnamed_addr constant [120 x i8] c"generated/home/dtcxzyw/WorkSpace/Projects/compilers/llvm-opt-benchmark/bench/folly/folly/folly/system/MemoryMapping.cpp\00", align 1
@.str.24 = private unnamed_addr constant [10 x i8] c"munlock()\00", align 1
@.str.25 = private unnamed_addr constant [10 x i8] c"madvise()\00", align 1

; Function Attrs: inlinehint mustprogress nounwind uwtable
define linkonce_odr noundef i32 @_ZStorSt12_Ios_IostateS_(i32 noundef %0, i32 noundef %1) #12 comdat {
  %3 = alloca i32, align 4
  %4 = alloca i32, align 4
  store i32 %0, ptr %3, align 4, !tbaa !82
  store i32 %1, ptr %4, align 4, !tbaa !82
  %5 = load i32, ptr %3, align 4, !tbaa !82
  %6 = load i32, ptr %4, align 4, !tbaa !82
  %7 = or i32 %5, %6
  ret i32 %7
}

; Function Attrs: mustprogress nounwind uwtable
define available_externally noundef i32 @_ZNKSt9basic_iosIcSt11char_traitsIcEE7rdstateEv(ptr noundef nonnull align 8 dereferenceable(264) %0) #2 align 2 {
  %2 = alloca ptr, align 8
  store ptr %0, ptr %2, align 8, !tbaa !80
  %3 = load ptr, ptr %2, align 8
  %4 = getelementptr inbounds nuw %"class.std::ios_base", ptr %3, i32 0, i32 5
  %5 = load i32, ptr %4, align 8, !tbaa !84
  ret i32 %5
}

; Function Attrs: mustprogress nounwind uwtable
define linkonce_odr noundef i64 @_ZNSt11char_traitsIcE6lengthEPKc(ptr noundef %0) #2 comdat align 2 {
  %2 = alloca ptr, align 8
  store ptr %0, ptr %2, align 8, !tbaa !12
  %3 = load ptr, ptr %2, align 8, !tbaa !12
  %4 = call i64 @strlen(ptr noundef %3) #17
  ret i64 %4
}

; Function Attrs: mustprogress uwtable
define available_externally void @_ZNSt9basic_iosIcSt11char_traitsIcEE8setstateESt12_Ios_Iostate(ptr noundef nonnull align 8 dereferenceable(264) %0, i32 noundef %1) #5 align 2 {
  %3 = alloca ptr, align 8
  %4 = alloca i32, align 4
  store ptr %0, ptr %3, align 8, !tbaa !80
  store i32 %1, ptr %4, align 4, !tbaa !82
  %5 = load ptr, ptr %3, align 8
  %6 = call noundef i32 @_ZNKSt9basic_iosIcSt11char_traitsIcEE7rdstateEv(ptr noundef nonnull align 8 dereferenceable(264) %5)
  %7 = load i32, ptr %4, align 4, !tbaa !82
  %8 = call noundef i32 @_ZStorSt12_Ios_IostateS_(i32 noundef %6, i32 noundef %7)
  call void @_ZNSt9basic_iosIcSt11char_traitsIcEE5clearESt12_Ios_Iostate(ptr noundef nonnull align 8 dereferenceable(264) %5, i32 noundef %8)
  ret void
}

; Function Attrs: inlinehint mustprogress nounwind uwtable
define linkonce_odr noundef nonnull align 8 dereferenceable(8) ptr @_ZSt3minImERKT_S2_S2_(ptr noundef nonnull align 8 dereferenceable(8) %0, ptr noundef nonnull align 8 dereferenceable(8) %1) #12 comdat {
  %3 = alloca ptr, align 8
  %4 = alloca ptr, align 8
  %5 = alloca ptr, align 8
  store ptr %0, ptr %4, align 8, !tbaa !65
  store ptr %1, ptr %5, align 8, !tbaa !65
  %6 = load ptr, ptr %5, align 8, !tbaa !65
  %7 = load i64, ptr %6, align 8, !tbaa !22
  %8 = load ptr, ptr %4, align 8, !tbaa !65
  %9 = load i64, ptr %8, align 8, !tbaa !22
  %10 = icmp ult i64 %7, %9
  br i1 %10, label %11, label %13

11:                                               ; preds = %2
  %12 = load ptr, ptr %5, align 8, !tbaa !65
  store ptr %12, ptr %3, align 8
  br label %15

13:                                               ; preds = %2
  %14 = load ptr, ptr %4, align 8, !tbaa !65
  store ptr %14, ptr %3, align 8
  br label %15

15:                                               ; preds = %13, %11
  %16 = load ptr, ptr %3, align 8
  ret ptr %16
}

; Function Attrs: mustprogress nounwind uwtable
define internal noundef i64 @_ZN5folly12_GLOBAL__N_114memOpChunkSizeEll(i64 noundef %0, i64 noundef %1) #2 {
  %3 = alloca i64, align 8
  %4 = alloca i64, align 8
  %5 = alloca i64, align 8
  %6 = alloca i64, align 8
  %7 = alloca i32, align 4
  %8 = alloca i64, align 8
  store i64 %0, ptr %4, align 8, !tbaa !22
  store i64 %1, ptr %5, align 8, !tbaa !22
  call void @llvm.lifetime.start.p0(i64 8, ptr %6) #17
  %9 = load i64, ptr %4, align 8, !tbaa !22
  store i64 %9, ptr %6, align 8, !tbaa !22
  %10 = load i64, ptr @_ZN5fLI6422FLAGS_mlock_chunk_sizeE, align 8, !tbaa !22
  %11 = icmp sle i64 %10, 0
  br i1 %11, label %12, label %14

12:                                               ; preds = %2
  %13 = load i64, ptr %6, align 8, !tbaa !22
  store i64 %13, ptr %3, align 8
  store i32 1, ptr %7, align 4
  br label %29

14:                                               ; preds = %2
  %15 = load i64, ptr @_ZN5fLI6422FLAGS_mlock_chunk_sizeE, align 8, !tbaa !22
  store i64 %15, ptr %6, align 8, !tbaa !22
  call void @llvm.lifetime.start.p0(i64 8, ptr %8) #17
  %16 = load i64, ptr %6, align 8, !tbaa !22
  %17 = load i64, ptr %5, align 8, !tbaa !22
  %18 = srem i64 %16, %17
  store i64 %18, ptr %8, align 8, !tbaa !22
  %19 = load i64, ptr %8, align 8, !tbaa !22
  %20 = icmp ne i64 %19, 0
  br i1 %20, label %21, label %27

21:                                               ; preds = %14
  %22 = load i64, ptr %5, align 8, !tbaa !22
  %23 = load i64, ptr %8, align 8, !tbaa !22
  %24 = sub nsw i64 %22, %23
  %25 = load i64, ptr %6, align 8, !tbaa !22
  %26 = add nsw i64 %25, %24
  store i64 %26, ptr %6, align 8, !tbaa !22
  br label %27

27:                                               ; preds = %21, %14
  %28 = load i64, ptr %6, align 8, !tbaa !22
  store i64 %28, ptr %3, align 8
  store i32 1, ptr %7, align 4
  call void @llvm.lifetime.end.p0(i64 8, ptr %8) #17
  br label %29

29:                                               ; preds = %27, %12
  call void @llvm.lifetime.end.p0(i64 8, ptr %6) #17
  %30 = load i64, ptr %3, align 8
  ret i64 %30
}

; Function Attrs: inlinehint mustprogress uwtable
define available_externally noundef nonnull align 8 dereferenceable(8) ptr @_ZStlsISt11char_traitsIcEERSt13basic_ostreamIcT_ES5_PKc(ptr noundef nonnull align 8 dereferenceable(8) %0, ptr noundef %1) #10 {
  %3 = alloca ptr, align 8
  %4 = alloca ptr, align 8
  store ptr %0, ptr %3, align 8, !tbaa !58
  store ptr %1, ptr %4, align 8, !tbaa !12
  %5 = load ptr, ptr %4, align 8, !tbaa !12
  %6 = icmp ne ptr %5, null
  br i1 %6, label %13, label %7

7:                                                ; preds = %2
  %8 = load ptr, ptr %3, align 8, !tbaa !58
  %9 = load ptr, ptr %8, align 8, !tbaa !60
  %10 = getelementptr i8, ptr %9, i64 -24
  %11 = load i64, ptr %10, align 8
  %12 = getelementptr inbounds i8, ptr %8, i64 %11
  call void @_ZNSt9basic_iosIcSt11char_traitsIcEE8setstateESt12_Ios_Iostate(ptr noundef nonnull align 8 dereferenceable(264) %12, i32 noundef 1)
  br label %19

13:                                               ; preds = %2
  %14 = load ptr, ptr %3, align 8, !tbaa !58
  %15 = load ptr, ptr %4, align 8, !tbaa !12
  %16 = load ptr, ptr %4, align 8, !tbaa !12
  %17 = call noundef i64 @_ZNSt11char_traitsIcE6lengthEPKc(ptr noundef %16)
  %18 = call noundef nonnull align 8 dereferenceable(8) ptr @_ZSt16__ostream_insertIcSt11char_traitsIcEERSt13basic_ostreamIT_T0_ES6_PKS3_l(ptr noundef nonnull align 8 dereferenceable(8) %14, ptr noundef %15, i64 noundef %17)
  br label %19

19:                                               ; preds = %13, %7
  %20 = load ptr, ptr %3, align 8, !tbaa !58
  ret ptr %20
}

; Function Attrs: mustprogress nounwind uwtable
define internal noundef zeroext i1 @_ZN5folly12_GLOBAL__N_113memOpInChunksIPDoFiPKvmEEEbT_PvmlRm(ptr noundef %0, ptr noundef %1, i64 noundef %2, i64 noundef %3, ptr noundef nonnull align 8 dereferenceable(8) %4) #2 {
  %6 = alloca i1, align 1
  %7 = alloca ptr, align 8
  %8 = alloca ptr, align 8
  %9 = alloca i64, align 8
  %10 = alloca i64, align 8
  %11 = alloca ptr, align 8
  %12 = alloca i64, align 8
  %13 = alloca ptr, align 8
  %14 = alloca i64, align 8
  %15 = alloca i64, align 8
  %16 = alloca i32, align 4
  store ptr %0, ptr %7, align 8, !tbaa !55
  store ptr %1, ptr %8, align 8, !tbaa !55
  store i64 %2, ptr %9, align 8, !tbaa !22
  store i64 %3, ptr %10, align 8, !tbaa !22
  store ptr %4, ptr %11, align 8, !tbaa !65
  call void @llvm.lifetime.start.p0(i64 8, ptr %12) #17
  %17 = load i64, ptr %9, align 8, !tbaa !22
  %18 = load i64, ptr %10, align 8, !tbaa !22
  %19 = call noundef i64 @_ZN5folly12_GLOBAL__N_114memOpChunkSizeEll(i64 noundef %17, i64 noundef %18)
  store i64 %19, ptr %12, align 8, !tbaa !22
  call void @llvm.lifetime.start.p0(i64 8, ptr %13) #17
  %20 = load ptr, ptr %8, align 8, !tbaa !55
  store ptr %20, ptr %13, align 8, !tbaa !12
  %21 = load ptr, ptr %11, align 8, !tbaa !65
  store i64 0, ptr %21, align 8, !tbaa !22
  br label %22

22:                                               ; preds = %50, %5
  %23 = load ptr, ptr %11, align 8, !tbaa !65
  %24 = load i64, ptr %23, align 8, !tbaa !22
  %25 = load i64, ptr %9, align 8, !tbaa !22
  %26 = icmp ult i64 %24, %25
  br i1 %26, label %27, label %51

27:                                               ; preds = %22
  call void @llvm.lifetime.start.p0(i64 8, ptr %14) #17
  call void @llvm.lifetime.start.p0(i64 8, ptr %15) #17
  %28 = load i64, ptr %9, align 8, !tbaa !22
  %29 = load ptr, ptr %11, align 8, !tbaa !65
  %30 = load i64, ptr %29, align 8, !tbaa !22
  %31 = sub i64 %28, %30
  store i64 %31, ptr %15, align 8, !tbaa !22
  %32 = call noundef nonnull align 8 dereferenceable(8) ptr @_ZSt3minImERKT_S2_S2_(ptr noundef nonnull align 8 dereferenceable(8) %12, ptr noundef nonnull align 8 dereferenceable(8) %15)
  %33 = load i64, ptr %32, align 8, !tbaa !22
  call void @llvm.lifetime.end.p0(i64 8, ptr %15) #17
  store i64 %33, ptr %14, align 8, !tbaa !22
  %34 = load ptr, ptr %7, align 8, !tbaa !55
  %35 = load ptr, ptr %13, align 8, !tbaa !12
  %36 = load ptr, ptr %11, align 8, !tbaa !65
  %37 = load i64, ptr %36, align 8, !tbaa !22
  %38 = getelementptr inbounds nuw i8, ptr %35, i64 %37
  %39 = load i64, ptr %14, align 8, !tbaa !22
  %40 = call noundef i32 %34(ptr noundef %38, i64 noundef %39) #17
  %41 = icmp ne i32 %40, 0
  br i1 %41, label %42, label %43

42:                                               ; preds = %27
  store i1 false, ptr %6, align 1
  store i32 1, ptr %16, align 4
  br label %48

43:                                               ; preds = %27
  %44 = load i64, ptr %14, align 8, !tbaa !22
  %45 = load ptr, ptr %11, align 8, !tbaa !65
  %46 = load i64, ptr %45, align 8, !tbaa !22
  %47 = add i64 %46, %44
  store i64 %47, ptr %45, align 8, !tbaa !22
  store i32 0, ptr %16, align 4
  br label %48

48:                                               ; preds = %43, %42
  call void @llvm.lifetime.end.p0(i64 8, ptr %14) #17
  %49 = load i32, ptr %16, align 4
  switch i32 %49, label %52 [
    i32 0, label %50
  ]

50:                                               ; preds = %48
  br label %22, !llvm.loop !121

51:                                               ; preds = %22
  store i1 true, ptr %6, align 1
  store i32 1, ptr %16, align 4
  br label %52

52:                                               ; preds = %51, %48
  call void @llvm.lifetime.end.p0(i64 8, ptr %13) #17
  call void @llvm.lifetime.end.p0(i64 8, ptr %12) #17
  %53 = load i1, ptr %6, align 1
  ret i1 %53
}

; Function Attrs: mustprogress uwtable
define void @_ZN5folly13MemoryMapping7munlockEb(ptr noundef nonnull align 8 dereferenceable(72) %0, i1 noundef zeroext %1) #5 align 2 personality ptr @__gxx_personality_v0 {
  %3 = alloca ptr, align 8
  %4 = alloca i8, align 1
  %5 = alloca i64, align 8
  %6 = alloca %"class.google::ErrnoLogMessage", align 8
  %7 = alloca { i64, i64 }, align 8
  %8 = alloca ptr, align 8
  %9 = alloca i32, align 4
  %10 = alloca %"class.google::ErrnoLogMessage", align 8
  %11 = alloca { i64, i64 }, align 8
  store ptr %0, ptr %3, align 8, !tbaa !25
  %12 = zext i1 %1 to i8
  store i8 %12, ptr %4, align 1, !tbaa !54
  %13 = load ptr, ptr %3, align 8
  %14 = getelementptr inbounds nuw %"class.folly::MemoryMapping", ptr %13, i32 0, i32 4
  %15 = load i8, ptr %14, align 8, !tbaa !35, !range !63, !noundef !64
  %16 = trunc i8 %15 to i1
  br i1 %16, label %18, label %17

17:                                               ; preds = %2
  br label %61

18:                                               ; preds = %2
  call void @llvm.lifetime.start.p0(i64 8, ptr %5) #17
  store i64 0, ptr %5, align 8, !tbaa !22
  %19 = getelementptr inbounds nuw %"class.folly::MemoryMapping", ptr %13, i32 0, i32 1
  %20 = load ptr, ptr %19, align 8, !tbaa !27
  %21 = getelementptr inbounds nuw %"class.folly::MemoryMapping", ptr %13, i32 0, i32 2
  %22 = load i64, ptr %21, align 8, !tbaa !34
  %23 = getelementptr inbounds nuw %"class.folly::MemoryMapping", ptr %13, i32 0, i32 3
  %24 = getelementptr inbounds nuw %"struct.folly::MemoryMapping::Options", ptr %23, i32 0, i32 0
  %25 = load i64, ptr %24, align 8, !tbaa !117
  %26 = call noundef zeroext i1 @_ZN5folly12_GLOBAL__N_113memOpInChunksIPDoFiPKvmEEEbT_PvmlRm(ptr noundef @munlock, ptr noundef %20, i64 noundef %22, i64 noundef %25, ptr noundef nonnull align 8 dereferenceable(8) %5)
  br i1 %26, label %36, label %27

27:                                               ; preds = %18
  call void @llvm.lifetime.start.p0(i64 16, ptr %6) #17
  call void @llvm.lifetime.start.p0(i64 16, ptr %7) #17
  store { i64, i64 } { i64 ptrtoint (ptr @_ZN6google10LogMessage9SendToLogEv to i64), i64 0 }, ptr %7, align 8, !tbaa !20
  call void @_ZN6google15ErrnoLogMessageC1EPKciiiMNS_10LogMessageEFvvE(ptr noundef nonnull align 8 dereferenceable(16) %6, ptr noundef @.str.7, i32 noundef 363, i32 noundef 1, i32 noundef 0, ptr noundef byval({ i64, i64 }) align 8 %7)
  call void @llvm.lifetime.end.p0(i64 16, ptr %7) #17
  %28 = invoke noundef nonnull align 8 dereferenceable(8) ptr @_ZN6google10LogMessage6streamEv(ptr noundef nonnull align 8 dereferenceable(16) %6)
          to label %29 unwind label %32

29:                                               ; preds = %27
  %30 = invoke noundef nonnull align 8 dereferenceable(8) ptr @_ZStlsISt11char_traitsIcEERSt13basic_ostreamIcT_ES5_PKc(ptr noundef nonnull align 8 dereferenceable(8) %28, ptr noundef @.str.24)
          to label %31 unwind label %32

31:                                               ; preds = %29
  call void @_ZN6google15ErrnoLogMessageD1Ev(ptr noundef nonnull align 8 dereferenceable(16) %6) #17
  call void @llvm.lifetime.end.p0(i64 16, ptr %6) #17
  br label %36

32:                                               ; preds = %29, %27
  %33 = landingpad { ptr, i32 }
          cleanup
  %34 = extractvalue { ptr, i32 } %33, 0
  store ptr %34, ptr %8, align 8
  %35 = extractvalue { ptr, i32 } %33, 1
  store i32 %35, ptr %9, align 4
  call void @_ZN6google15ErrnoLogMessageD1Ev(ptr noundef nonnull align 8 dereferenceable(16) %6) #17
  call void @llvm.lifetime.end.p0(i64 16, ptr %6) #17
  br label %62

36:                                               ; preds = %31, %18
  %37 = getelementptr inbounds nuw %"class.folly::MemoryMapping", ptr %13, i32 0, i32 2
  %38 = load i64, ptr %37, align 8, !tbaa !34
  %39 = icmp ne i64 %38, 0
  br i1 %39, label %40, label %59

40:                                               ; preds = %36
  %41 = load i8, ptr %4, align 1, !tbaa !54, !range !63, !noundef !64
  %42 = trunc i8 %41 to i1
  br i1 %42, label %43, label %59

43:                                               ; preds = %40
  %44 = getelementptr inbounds nuw %"class.folly::MemoryMapping", ptr %13, i32 0, i32 1
  %45 = load ptr, ptr %44, align 8, !tbaa !27
  %46 = getelementptr inbounds nuw %"class.folly::MemoryMapping", ptr %13, i32 0, i32 2
  %47 = load i64, ptr %46, align 8, !tbaa !34
  %48 = call i32 @madvise(ptr noundef %45, i64 noundef %47, i32 noundef 4) #17
  %49 = icmp ne i32 %48, 0
  br i1 %49, label %50, label %59

50:                                               ; preds = %43
  call void @llvm.lifetime.start.p0(i64 16, ptr %10) #17
  call void @llvm.lifetime.start.p0(i64 16, ptr %11) #17
  store { i64, i64 } { i64 ptrtoint (ptr @_ZN6google10LogMessage9SendToLogEv to i64), i64 0 }, ptr %11, align 8, !tbaa !20
  call void @_ZN6google15ErrnoLogMessageC1EPKciiiMNS_10LogMessageEFvvE(ptr noundef nonnull align 8 dereferenceable(16) %10, ptr noundef @.str.7, i32 noundef 367, i32 noundef 1, i32 noundef 0, ptr noundef byval({ i64, i64 }) align 8 %11)
  call void @llvm.lifetime.end.p0(i64 16, ptr %11) #17
  %51 = invoke noundef nonnull align 8 dereferenceable(8) ptr @_ZN6google10LogMessage6streamEv(ptr noundef nonnull align 8 dereferenceable(16) %10)
          to label %52 unwind label %55

52:                                               ; preds = %50
  %53 = invoke noundef nonnull align 8 dereferenceable(8) ptr @_ZStlsISt11char_traitsIcEERSt13basic_ostreamIcT_ES5_PKc(ptr noundef nonnull align 8 dereferenceable(8) %51, ptr noundef @.str.25)
          to label %54 unwind label %55

54:                                               ; preds = %52
  call void @_ZN6google15ErrnoLogMessageD1Ev(ptr noundef nonnull align 8 dereferenceable(16) %10) #17
  call void @llvm.lifetime.end.p0(i64 16, ptr %10) #17
  br label %59

55:                                               ; preds = %52, %50
  %56 = landingpad { ptr, i32 }
          cleanup
  %57 = extractvalue { ptr, i32 } %56, 0
  store ptr %57, ptr %8, align 8
  %58 = extractvalue { ptr, i32 } %56, 1
  store i32 %58, ptr %9, align 4
  call void @_ZN6google15ErrnoLogMessageD1Ev(ptr noundef nonnull align 8 dereferenceable(16) %10) #17
  call void @llvm.lifetime.end.p0(i64 16, ptr %10) #17
  br label %62

59:                                               ; preds = %54, %43, %40, %36
  %60 = getelementptr inbounds nuw %"class.folly::MemoryMapping", ptr %13, i32 0, i32 4
  store i8 0, ptr %60, align 8, !tbaa !35
  call void @llvm.lifetime.end.p0(i64 8, ptr %5) #17
  br label %61

61:                                               ; preds = %59, %17
  ret void

62:                                               ; preds = %55, %32
  call void @llvm.lifetime.end.p0(i64 8, ptr %5) #17
  br label %63

63:                                               ; preds = %62
  %64 = load ptr, ptr %8, align 8
  %65 = load i32, ptr %9, align 4
  %66 = insertvalue { ptr, i32 } poison, ptr %64, 0
  %67 = insertvalue { ptr, i32 } %66, i32 %65, 1
  resume { ptr, i32 } %67
}