; Function Attrs: mustprogress uwtable
define void @_ZN5folly13MemoryMapping7munlockEb(ptr noundef nonnull align 8 captures(none) dereferenceable(72) %0, i1 noundef zeroext %1) local_unnamed_addr #7 align 2 personality ptr @__gxx_personality_v0 {
  %3 = alloca %"class.google::ErrnoLogMessage", align 8
  %4 = alloca { i64, i64 }, align 8
  %5 = alloca %"class.google::ErrnoLogMessage", align 8
  %6 = alloca { i64, i64 }, align 8
  %7 = getelementptr inbounds nuw i8, ptr %0, i64 48
  %8 = load i8, ptr %7, align 8, !tbaa !23, !range !31, !noundef !32
  %9 = trunc nuw i8 %8 to i1
  br i1 %9, label %10, label %45

10:                                               ; preds = %2
  %11 = getelementptr inbounds nuw i8, ptr %0, i64 8
  %12 = load ptr, ptr %11, align 8, !tbaa !56
  %13 = getelementptr inbounds nuw i8, ptr %0, i64 16
  %14 = load i64, ptr %13, align 8, !tbaa !50
  %15 = load i64, ptr @_ZN5fLI6422FLAGS_mlock_chunk_sizeE, align 8, !tbaa !28
  %16 = icmp slt i64 %15, 1
  br i1 %16, label %_ZN5folly12_GLOBAL__N_114memOpChunkSizeEll.exit.i, label %17

17:                                               ; preds = %10
  %18 = getelementptr inbounds nuw i8, ptr %0, i64 24
  %19 = load i64, ptr %18, align 8, !tbaa !62
  %20 = srem i64 %15, %19
  %.not.i.i = icmp eq i64 %20, 0
  %21 = sub nsw i64 %19, %20
  %22 = select i1 %.not.i.i, i64 0, i64 %21
  %.010.i.i = add nsw i64 %22, %15
  br label %_ZN5folly12_GLOBAL__N_114memOpChunkSizeEll.exit.i

_ZN5folly12_GLOBAL__N_114memOpChunkSizeEll.exit.i: ; preds = %17, %10
  %.0.i.i = phi i64 [ %.010.i.i, %17 ], [ %14, %10 ]
  %23 = icmp eq i64 %14, 0
  br i1 %23, label %_ZN5folly12_GLOBAL__N_113memOpInChunksIPDoFiPKvmEEEbT_PvmlRm.exit.thread, label %.lr.ph.i

.lr.ph.i:                                         ; preds = %_ZN5folly12_GLOBAL__N_114memOpChunkSizeEll.exit.i, %27
  %.0 = phi i64 [ %28, %27 ], [ 0, %_ZN5folly12_GLOBAL__N_114memOpChunkSizeEll.exit.i ]
  %24 = sub nuw i64 %14, %.0
  %.sroa.speculated.i = tail call i64 @llvm.umin.i64(i64 %24, i64 %.0.i.i)
  %25 = getelementptr inbounds nuw i8, ptr %12, i64 %.0
  %26 = tail call noundef i32 @munlock(ptr noundef %25, i64 noundef %.sroa.speculated.i) #20
  %.not.i = icmp eq i32 %26, 0
  br i1 %.not.i, label %27, label %_ZN5folly12_GLOBAL__N_113memOpInChunksIPDoFiPKvmEEEbT_PvmlRm.exit

27:                                               ; preds = %.lr.ph.i
  %28 = add i64 %.sroa.speculated.i, %.0
  %.not7.i = icmp ult i64 %28, %14
  br i1 %.not7.i, label %.lr.ph.i, label %_ZN5folly12_GLOBAL__N_113memOpInChunksIPDoFiPKvmEEEbT_PvmlRm.exit.thread, !llvm.loop !76

_ZN5folly12_GLOBAL__N_113memOpInChunksIPDoFiPKvmEEEbT_PvmlRm.exit: ; preds = %.lr.ph.i
  call void @llvm.lifetime.start.p0(i64 16, ptr nonnull %3) #20
  call void @llvm.lifetime.start.p0(i64 16, ptr nonnull %4) #20
  store i64 ptrtoint (ptr @_ZN6google10LogMessage9SendToLogEv to i64), ptr %4, align 8, !tbaa !36
  %.fca.1.gep2 = getelementptr inbounds nuw i8, ptr %4, i64 8
  store i64 0, ptr %.fca.1.gep2, align 8, !tbaa !36
  call void @_ZN6google15ErrnoLogMessageC1EPKciiiMNS_10LogMessageEFvvE(ptr noundef nonnull align 8 dereferenceable(16) %3, ptr noundef nonnull @.str.7, i32 noundef 363, i32 noundef 1, i32 noundef 0, ptr noundef nonnull byval({ i64, i64 }) align 8 %4)
  call void @llvm.lifetime.end.p0(i64 16, ptr nonnull %4) #20
  %29 = invoke noundef nonnull align 8 dereferenceable(8) ptr @_ZN6google10LogMessage6streamEv(ptr noundef nonnull align 8 dereferenceable(16) %3)
          to label %30 unwind label %32

30:                                               ; preds = %_ZN5folly12_GLOBAL__N_113memOpInChunksIPDoFiPKvmEEEbT_PvmlRm.exit
  %31 = invoke noundef nonnull align 8 dereferenceable(8) ptr @_ZSt16__ostream_insertIcSt11char_traitsIcEERSt13basic_ostreamIT_T0_ES6_PKS3_l(ptr noundef nonnull align 8 dereferenceable(8) %29, ptr noundef nonnull @.str.24, i64 noundef 9)
          to label %_ZStlsISt11char_traitsIcEERSt13basic_ostreamIcT_ES5_PKc.exit unwind label %32

_ZStlsISt11char_traitsIcEERSt13basic_ostreamIcT_ES5_PKc.exit: ; preds = %30
  call void @_ZN6google15ErrnoLogMessageD1Ev(ptr noundef nonnull align 8 dereferenceable(16) %3) #20
  call void @llvm.lifetime.end.p0(i64 16, ptr nonnull %3) #20
  br label %_ZN5folly12_GLOBAL__N_113memOpInChunksIPDoFiPKvmEEEbT_PvmlRm.exit.thread

32:                                               ; preds = %30, %_ZN5folly12_GLOBAL__N_113memOpInChunksIPDoFiPKvmEEEbT_PvmlRm.exit
  %33 = landingpad { ptr, i32 }
          cleanup
  call void @_ZN6google15ErrnoLogMessageD1Ev(ptr noundef nonnull align 8 dereferenceable(16) %3) #20
  call void @llvm.lifetime.end.p0(i64 16, ptr nonnull %3) #20
  br label %46

_ZN5folly12_GLOBAL__N_113memOpInChunksIPDoFiPKvmEEEbT_PvmlRm.exit.thread: ; preds = %27, %_ZN5folly12_GLOBAL__N_114memOpChunkSizeEll.exit.i, %_ZStlsISt11char_traitsIcEERSt13basic_ostreamIcT_ES5_PKc.exit
  %34 = load i64, ptr %13, align 8, !tbaa !50
  %.not = icmp ne i64 %34, 0
  %brmerge.not = and i1 %1, %.not
  br i1 %brmerge.not, label %35, label %44

35:                                               ; preds = %_ZN5folly12_GLOBAL__N_113memOpInChunksIPDoFiPKvmEEEbT_PvmlRm.exit.thread
  %36 = load ptr, ptr %11, align 8, !tbaa !56
  %37 = call i32 @madvise(ptr noundef %36, i64 noundef %34, i32 noundef 4) #20
  %.not7 = icmp eq i32 %37, 0
  br i1 %.not7, label %44, label %38

38:                                               ; preds = %35
  call void @llvm.lifetime.start.p0(i64 16, ptr nonnull %5) #20
  call void @llvm.lifetime.start.p0(i64 16, ptr nonnull %6) #20
  store i64 ptrtoint (ptr @_ZN6google10LogMessage9SendToLogEv to i64), ptr %6, align 8, !tbaa !36
  %.fca.1.gep = getelementptr inbounds nuw i8, ptr %6, i64 8
  store i64 0, ptr %.fca.1.gep, align 8, !tbaa !36
  call void @_ZN6google15ErrnoLogMessageC1EPKciiiMNS_10LogMessageEFvvE(ptr noundef nonnull align 8 dereferenceable(16) %5, ptr noundef nonnull @.str.7, i32 noundef 367, i32 noundef 1, i32 noundef 0, ptr noundef nonnull byval({ i64, i64 }) align 8 %6)
  call void @llvm.lifetime.end.p0(i64 16, ptr nonnull %6) #20
  %39 = invoke noundef nonnull align 8 dereferenceable(8) ptr @_ZN6google10LogMessage6streamEv(ptr noundef nonnull align 8 dereferenceable(16) %5)
          to label %40 unwind label %42

40:                                               ; preds = %38
  %41 = invoke noundef nonnull align 8 dereferenceable(8) ptr @_ZSt16__ostream_insertIcSt11char_traitsIcEERSt13basic_ostreamIT_T0_ES6_PKS3_l(ptr noundef nonnull align 8 dereferenceable(8) %39, ptr noundef nonnull @.str.25, i64 noundef 9)
          to label %_ZStlsISt11char_traitsIcEERSt13basic_ostreamIcT_ES5_PKc.exit10 unwind label %42

_ZStlsISt11char_traitsIcEERSt13basic_ostreamIcT_ES5_PKc.exit10: ; preds = %40
  call void @_ZN6google15ErrnoLogMessageD1Ev(ptr noundef nonnull align 8 dereferenceable(16) %5) #20
  call void @llvm.lifetime.end.p0(i64 16, ptr nonnull %5) #20
  br label %44

42:                                               ; preds = %40, %38
  %43 = landingpad { ptr, i32 }
          cleanup
  call void @_ZN6google15ErrnoLogMessageD1Ev(ptr noundef nonnull align 8 dereferenceable(16) %5) #20
  call void @llvm.lifetime.end.p0(i64 16, ptr nonnull %5) #20
  br label %46

44:                                               ; preds = %_ZN5folly12_GLOBAL__N_113memOpInChunksIPDoFiPKvmEEEbT_PvmlRm.exit.thread, %_ZStlsISt11char_traitsIcEERSt13basic_ostreamIcT_ES5_PKc.exit10, %35
  store i8 0, ptr %7, align 8, !tbaa !23
  br label %45

45:                                               ; preds = %2, %44
  ret void

46:                                               ; preds = %42, %32
  %.pn = phi { ptr, i32 } [ %43, %42 ], [ %33, %32 ]
  resume { ptr, i32 } %.pn
}